target datalayout = "e-m:e-p270:32:32-p271:32:32-p272:64:64-i64:64-i128:128-f80:128-n8:16:32:64-S128"
target triple = "x86_64-unknown-linux-gnu"

; Function Attrs: mustprogress nounwind uwtable
define { i64, i64 } @_ZN3zmq13zmtp_engine_t20select_handshake_funEbhh(i1 noundef zeroext %unversioned_, i8 noundef zeroext %revision_, i8 noundef zeroext %minor_) #4 align 2 {
entry:
  %retval = alloca { i64, i64 }, align 8
  %unversioned_.addr = alloca i8, align 1
  %revision_.addr = alloca i8, align 1
  %minor_.addr = alloca i8, align 1
  %frombool = zext i1 %unversioned_ to i8
  store i8 %frombool, ptr %unversioned_.addr, align 1
  store i8 %revision_, ptr %revision_.addr, align 1
  store i8 %minor_, ptr %minor_.addr, align 1
  %0 = load i8, ptr %unversioned_.addr, align 1
  %tobool = trunc i8 %0 to i1
  br i1 %tobool, label %if.then, label %if.end

if.then:                                          ; preds = %entry
  store { i64, i64 } { i64 ptrtoint (ptr @_ZN3zmq13zmtp_engine_t26handshake_v1_0_unversionedEv to i64), i64 0 }, ptr %retval, align 8
  br label %return

if.end:                                           ; preds = %entry
  %1 = load i8, ptr %revision_.addr, align 1
  %conv = zext i8 %1 to i32
  switch i32 %conv, label %sw.default5 [
    i32 0, label %sw.bb
    i32 1, label %sw.bb1
    i32 3, label %sw.bb2
  ]

sw.bb:                                            ; preds = %if.end
  store { i64, i64 } { i64 ptrtoint (ptr @_ZN3zmq13zmtp_engine_t14handshake_v1_0Ev to i64), i64 0 }, ptr %retval, align 8
  br label %return

sw.bb1:                                           ; preds = %if.end
  store { i64, i64 } { i64 ptrtoint (ptr @_ZN3zmq13zmtp_engine_t14handshake_v2_0Ev to i64), i64 0 }, ptr %retval, align 8
  br label %return

sw.bb2:                                           ; preds = %if.end
  %2 = load i8, ptr %minor_.addr, align 1
  %conv3 = zext i8 %2 to i32
  switch i32 %conv3, label %sw.default [
    i32 0, label %sw.bb4
  ]

sw.bb4:                                           ; preds = %sw.bb2
  store { i64, i64 } { i64 ptrtoint (ptr @_ZN3zmq13zmtp_engine_t14handshake_v3_0Ev to i64), i64 0 }, ptr %retval, align 8
  br label %return

sw.default:                                       ; preds = %sw.bb2
  store { i64, i64 } { i64 ptrtoint (ptr @_ZN3zmq13zmtp_engine_t14handshake_v3_1Ev to i64), i64 0 }, ptr %retval, align 8
  br label %return

sw.default5:                                      ; preds = %if.end
  store { i64, i64 } { i64 ptrtoint (ptr @_ZN3zmq13zmtp_engine_t14handshake_v3_1Ev to i64), i64 0 }, ptr %retval, align 8
  br label %return

return:                                           ; preds = %sw.default5, %sw.default, %sw.bb4, %sw.bb1, %sw.bb, %if.then
  %3 = load { i64, i64 }, ptr %retval, align 8
  ret { i64, i64 } %3
}