; Function Attrs: mustprogress nofree norecurse nosync nounwind willreturn memory(none) uwtable
define { i64, i64 } @_ZN3zmq13zmtp_engine_t20select_handshake_funEbhh(i1 noundef zeroext %unversioned_, i8 noundef zeroext %revision_, i8 noundef zeroext %minor_) local_unnamed_addr #9 align 2 {
entry:
  br i1 %unversioned_, label %return, label %if.end

if.end:                                           ; preds = %entry
  switch i8 %revision_, label %sw.default5 [
    i8 0, label %return
    i8 1, label %sw.bb1
    i8 3, label %sw.bb2
  ]

sw.bb1:                                           ; preds = %if.end
  br label %return

sw.bb2:                                           ; preds = %if.end
  %cond = icmp eq i8 %minor_, 0
  %. = select i1 %cond, i64 ptrtoint (ptr @_ZN3zmq13zmtp_engine_t14handshake_v3_0Ev to i64), i64 ptrtoint (ptr @_ZN3zmq13zmtp_engine_t14handshake_v3_1Ev to i64)
  br label %return

sw.default5:                                      ; preds = %if.end
  br label %return

return:                                           ; preds = %sw.bb2, %if.end, %entry, %sw.default5, %sw.bb1
  %retval.sroa.0.0 = phi i64 [ ptrtoint (ptr @_ZN3zmq13zmtp_engine_t14handshake_v3_1Ev to i64), %sw.default5 ], [ ptrtoint (ptr @_ZN3zmq13zmtp_engine_t14handshake_v2_0Ev to i64), %sw.bb1 ], [ ptrtoint (ptr @_ZN3zmq13zmtp_engine_t26handshake_v1_0_unversionedEv to i64), %entry ], [ ptrtoint (ptr @_ZN3zmq13zmtp_engine_t14handshake_v1_0Ev to i64), %if.end ], [ %., %sw.bb2 ]
  %.fca.0.insert = insertvalue { i64, i64 } poison, i64 %retval.sroa.0.0, 0
  %.fca.1.insert = insertvalue { i64, i64 } %.fca.0.insert, i64 0, 1
  ret { i64, i64 } %.fca.1.insert
}